; Function Attrs: mustprogress uwtable
define noundef nonnull align 4 dereferenceable(8) ptr @_ZN32pxrInternal_v0_24__pxrReserved__26SdfNamespaceEdit_Namespace24FindOrCreateOriginalPathERKNS_7SdfPathE(ptr noundef nonnull align 8 dereferenceable(144) %0, ptr noundef nonnull align 4 dereferenceable(8) %1) local_unnamed_addr #0 align 2 {
  %3 = tail call noundef ptr @_ZN32pxrInternal_v0_24__pxrReserved__26SdfNamespaceEdit_Namespace23_FindOrCreateNodeAtPathERKNS_7SdfPathE(ptr noundef nonnull align 8 dereferenceable(144) %0, ptr noundef nonnull align 4 dereferenceable(8) %1)
  %.not = icmp eq ptr %3, null
  br i1 %.not, label %6, label %4

4:                                                ; preds = %2
  %5 = getelementptr inbounds nuw i8, ptr %3, i64 32
  br label %8

6:                                                ; preds = %2
  %7 = tail call noundef nonnull align 4 dereferenceable(8) ptr @_ZN32pxrInternal_v0_24__pxrReserved__7SdfPath9EmptyPathEv()
  br label %8

8:                                                ; preds = %6, %4
  %9 = phi ptr [ %5, %4 ], [ %7, %6 ]
  ret ptr %9
}